; Function Attrs: nofree nosync nounwind memory(readwrite, inaccessiblemem: none) uwtable
define ptr @Saig_ManGetLabeledRegister_rec(ptr noundef readonly captures(none) %0, ptr noundef %1) local_unnamed_addr #7 {
  %3 = getelementptr i8, ptr %0, i64 312
  %.val2944 = load i32, ptr %3, align 8, !tbaa !95
  %4 = getelementptr i8, ptr %1, i64 32
  %.val3045 = load i32, ptr %4, align 8, !tbaa !96
  %.not46 = icmp eq i32 %.val3045, %.val2944
  br i1 %.not46, label %Saig_ObjIsLo.exit.thread._crit_edge, label %.lr.ph

.lr.ph:                                           ; preds = %2
  %5 = getelementptr i8, ptr %0, i64 108
  %6 = getelementptr inbounds nuw i8, ptr %0, i64 24
  %7 = getelementptr i8, ptr %0, i64 112
  br label %8

8:                                                ; preds = %.lr.ph, %tailrecurse.backedge
  %.val2952 = phi i32 [ %.val2944, %.lr.ph ], [ %.val29, %tailrecurse.backedge ]
  %9 = phi ptr [ %4, %.lr.ph ], [ %22, %tailrecurse.backedge ]
  %.tr4347 = phi ptr [ %1, %.lr.ph ], [ %.tr43.be, %tailrecurse.backedge ]
  store i32 %.val2952, ptr %9, align 8, !tbaa !96
  %10 = getelementptr i8, ptr %.tr4347, i64 24
  %.val3.i = load i64, ptr %10, align 8
  %11 = and i64 %.val3.i, 7
  %.not.i = icmp eq i64 %11, 2
  br i1 %.not.i, label %Saig_ObjIsPi.exit, label %Saig_ObjIsLo.exit.thread

Saig_ObjIsPi.exit:                                ; preds = %8
  %.val4.i = load i32, ptr %.tr4347, align 8, !tbaa !33
  %.val.i = load i32, ptr %5, align 4, !tbaa !3
  %.not41 = icmp slt i32 %.val4.i, %.val.i
  br i1 %.not41, label %Saig_ObjIsLo.exit.thread._crit_edge, label %Saig_ObjIsLo.exit

Saig_ObjIsLo.exit:                                ; preds = %Saig_ObjIsPi.exit
  %12 = and i64 %.val3.i, 48
  %or.cond = icmp eq i64 %12, 0
  br i1 %or.cond, label %13, label %Saig_ObjIsLo.exit.thread._crit_edge

13:                                               ; preds = %Saig_ObjIsLo.exit
  %14 = load ptr, ptr %6, align 8, !tbaa !27
  %.val4.i37 = load i32, ptr %7, align 8, !tbaa !25
  %15 = add nsw i32 %.val4.i37, %.val4.i
  %16 = sub i32 %15, %.val.i
  %17 = getelementptr i8, ptr %14, i64 8
  %.val5.i = load ptr, ptr %17, align 8, !tbaa !28
  %18 = sext i32 %16 to i64
  %19 = getelementptr inbounds ptr, ptr %.val5.i, i64 %18
  %20 = load ptr, ptr %19, align 8, !tbaa !31
  %21 = getelementptr i8, ptr %20, i64 8
  br label %tailrecurse.backedge

tailrecurse.backedge:                             ; preds = %13, %28
  %.val29 = phi i32 [ %.val2952, %13 ], [ %.val29.pre, %28 ]
  %.tr43.be.in.in.in.in = phi ptr [ %21, %13 ], [ %29, %28 ]
  %.tr43.be.in.in.in = load ptr, ptr %.tr43.be.in.in.in.in, align 8, !tbaa !56
  %.tr43.be.in.in = ptrtoint ptr %.tr43.be.in.in.in to i64
  %.tr43.be.in = and i64 %.tr43.be.in.in, -2
  %.tr43.be = inttoptr i64 %.tr43.be.in to ptr
  %22 = getelementptr i8, ptr %.tr43.be, i64 32
  %.val30 = load i32, ptr %22, align 8, !tbaa !96
  %.not = icmp eq i32 %.val30, %.val29
  br i1 %.not, label %Saig_ObjIsLo.exit.thread._crit_edge, label %8

Saig_ObjIsLo.exit.thread:                         ; preds = %8
  %23 = getelementptr i8, ptr %.tr4347, i64 8
  %.val = load ptr, ptr %23, align 8, !tbaa !32
  %24 = ptrtoint ptr %.val to i64
  %25 = and i64 %24, -2
  %26 = inttoptr i64 %25 to ptr
  %27 = tail call ptr @Saig_ManGetLabeledRegister_rec(ptr noundef nonnull %0, ptr noundef %26)
  %.not24 = icmp eq ptr %27, null
  br i1 %.not24, label %28, label %Saig_ObjIsLo.exit.thread._crit_edge

28:                                               ; preds = %Saig_ObjIsLo.exit.thread
  %29 = getelementptr i8, ptr %.tr4347, i64 16
  %.val29.pre = load i32, ptr %3, align 8, !tbaa !95
  br label %tailrecurse.backedge

Saig_ObjIsLo.exit.thread._crit_edge:              ; preds = %tailrecurse.backedge, %Saig_ObjIsPi.exit, %Saig_ObjIsLo.exit, %Saig_ObjIsLo.exit.thread, %2
  %.0 = phi ptr [ null, %2 ], [ %27, %Saig_ObjIsLo.exit.thread ], [ %.tr4347, %Saig_ObjIsLo.exit ], [ null, %Saig_ObjIsPi.exit ], [ null, %tailrecurse.backedge ]
  ret ptr %.0
}